; Function Attrs: mustprogress nounwind uwtable
define dso_local noundef ptr @_ZN4llvm11emitStrLCpyEPNS_5ValueES1_S1_RNS_13IRBuilderBaseEPKNS_17TargetLibraryInfoE(ptr noundef %0, ptr noundef %1, ptr noundef %2, ptr noundef nonnull align 8 dereferenceable(128) %3, ptr noundef %4) local_unnamed_addr #0 {
  %6 = alloca [3 x ptr], align 8
  %7 = alloca [3 x ptr], align 8
  %8 = getelementptr inbounds nuw i8, ptr %3, i64 72
  %9 = load ptr, ptr %8, align 8
  %10 = tail call noundef ptr @_ZN4llvm11PointerType3getERNS_11LLVMContextEj(ptr noundef nonnull align 8 dereferenceable(8) %9, i32 noundef 0) #7
  %11 = getelementptr inbounds nuw i8, ptr %3, i64 48
  %12 = load ptr, ptr %11, align 8
  %13 = tail call noundef ptr @_ZNK4llvm10BasicBlock9getModuleEv(ptr noundef nonnull align 8 dereferenceable(80) %12) #7
  %14 = load ptr, ptr %4, align 8
  %15 = tail call noundef i32 @_ZNK4llvm21TargetLibraryInfoImpl12getSizeTSizeERKNS_6ModuleE(ptr noundef nonnull align 8 dereferenceable(208) %14, ptr noundef nonnull align 8 dereferenceable(857) %13) #7
  %16 = load ptr, ptr %8, align 8
  %17 = tail call noundef ptr @_ZN4llvm4Type9getIntNTyERNS_11LLVMContextEj(ptr noundef nonnull align 8 dereferenceable(8) %16, i32 noundef %15) #7
  store ptr %10, ptr %6, align 8
  %18 = getelementptr inbounds i8, ptr %6, i64 8
  store ptr %10, ptr %18, align 8
  %19 = getelementptr inbounds i8, ptr %6, i64 16
  store ptr %17, ptr %19, align 8
  store ptr %0, ptr %7, align 8
  %20 = getelementptr inbounds i8, ptr %7, i64 8
  store ptr %1, ptr %20, align 8
  %21 = getelementptr inbounds i8, ptr %7, i64 16
  store ptr %2, ptr %21, align 8
  %22 = call fastcc noundef ptr @_ZL11emitLibCallN4llvm7LibFuncEPNS_4TypeENS_8ArrayRefIS2_EENS3_IPNS_5ValueEEERNS_13IRBuilderBaseEPKNS_17TargetLibraryInfoEb(i32 noundef 445, ptr noundef %17, ptr nonnull %6, i64 3, ptr nonnull %7, i64 3, ptr noundef nonnull align 8 dereferenceable(128) %3, ptr noundef nonnull %4, i1 noundef zeroext false)
  ret ptr %22
}